; Function Attrs: mustprogress nounwind willreturn uwtable
define void @Gia_ObjComputeTruthTableStop(ptr noundef captures(none) initializes((920, 928)) %0) local_unnamed_addr #7 {
  %2 = getelementptr inbounds nuw i8, ptr %0, i64 920
  store i32 0, ptr %2, align 8, !tbaa !61
  %3 = getelementptr inbounds nuw i8, ptr %0, i64 924
  store i32 0, ptr %3, align 4, !tbaa !62
  %4 = getelementptr inbounds nuw i8, ptr %0, i64 928
  %5 = load ptr, ptr %4, align 8, !tbaa !85
  %6 = icmp eq ptr %5, null
  br i1 %6, label %Vec_IntFreeP.exit, label %7

7:                                                ; preds = %1
  %8 = getelementptr inbounds nuw i8, ptr %5, i64 8
  %9 = load ptr, ptr %8, align 8, !tbaa !30
  %.not.i = icmp eq ptr %9, null
  br i1 %.not.i, label %12, label %.thread.i

.thread.i:                                        ; preds = %7
  tail call void @free(ptr noundef nonnull %9) #23
  %10 = load ptr, ptr %4, align 8, !tbaa !85
  %11 = getelementptr inbounds nuw i8, ptr %10, i64 8
  store ptr null, ptr %11, align 8, !tbaa !30
  br label %12

12:                                               ; preds = %.thread.i, %7
  %13 = phi ptr [ %10, %.thread.i ], [ %5, %7 ]
  tail call void @free(ptr noundef nonnull %13) #23
  store ptr null, ptr %4, align 8, !tbaa !85
  br label %Vec_IntFreeP.exit

Vec_IntFreeP.exit:                                ; preds = %1, %12
  %14 = getelementptr inbounds nuw i8, ptr %0, i64 936
  %15 = load ptr, ptr %14, align 8, !tbaa !85
  %16 = icmp eq ptr %15, null
  br i1 %16, label %Vec_IntFreeP.exit8, label %17

17:                                               ; preds = %Vec_IntFreeP.exit
  %18 = getelementptr inbounds nuw i8, ptr %15, i64 8
  %19 = load ptr, ptr %18, align 8, !tbaa !30
  %.not.i6 = icmp eq ptr %19, null
  br i1 %.not.i6, label %22, label %.thread.i7

.thread.i7:                                       ; preds = %17
  tail call void @free(ptr noundef nonnull %19) #23
  %20 = load ptr, ptr %14, align 8, !tbaa !85
  %21 = getelementptr inbounds nuw i8, ptr %20, i64 8
  store ptr null, ptr %21, align 8, !tbaa !30
  br label %22

22:                                               ; preds = %.thread.i7, %17
  %23 = phi ptr [ %20, %.thread.i7 ], [ %15, %17 ]
  tail call void @free(ptr noundef nonnull %23) #23
  store ptr null, ptr %14, align 8, !tbaa !85
  br label %Vec_IntFreeP.exit8

Vec_IntFreeP.exit8:                               ; preds = %Vec_IntFreeP.exit, %22
  %24 = getelementptr inbounds nuw i8, ptr %0, i64 944
  %25 = load ptr, ptr %24, align 8, !tbaa !86
  %26 = icmp eq ptr %25, null
  br i1 %26, label %Vec_PtrFreeP.exit, label %27

27:                                               ; preds = %Vec_IntFreeP.exit8
  %28 = getelementptr inbounds nuw i8, ptr %25, i64 8
  %29 = load ptr, ptr %28, align 8, !tbaa !69
  %.not.i9 = icmp eq ptr %29, null
  br i1 %.not.i9, label %32, label %.thread.i10

.thread.i10:                                      ; preds = %27
  tail call void @free(ptr noundef nonnull %29) #23
  %30 = load ptr, ptr %24, align 8, !tbaa !86
  %31 = getelementptr inbounds nuw i8, ptr %30, i64 8
  store ptr null, ptr %31, align 8, !tbaa !69
  br label %32

32:                                               ; preds = %.thread.i10, %27
  %33 = phi ptr [ %30, %.thread.i10 ], [ %25, %27 ]
  tail call void @free(ptr noundef nonnull %33) #23
  store ptr null, ptr %24, align 8, !tbaa !86
  br label %Vec_PtrFreeP.exit

Vec_PtrFreeP.exit:                                ; preds = %Vec_IntFreeP.exit8, %32
  %34 = getelementptr inbounds nuw i8, ptr %0, i64 952
  %35 = load ptr, ptr %34, align 8, !tbaa !87
  %36 = icmp eq ptr %35, null
  br i1 %36, label %Vec_WrdFreeP.exit, label %37

37:                                               ; preds = %Vec_PtrFreeP.exit
  %38 = getelementptr inbounds nuw i8, ptr %35, i64 8
  %39 = load ptr, ptr %38, align 8, !tbaa !44
  %.not.i11 = icmp eq ptr %39, null
  br i1 %.not.i11, label %42, label %.thread.i12

.thread.i12:                                      ; preds = %37
  tail call void @free(ptr noundef nonnull %39) #23
  %40 = load ptr, ptr %34, align 8, !tbaa !87
  %41 = getelementptr inbounds nuw i8, ptr %40, i64 8
  store ptr null, ptr %41, align 8, !tbaa !44
  br label %42

42:                                               ; preds = %.thread.i12, %37
  %43 = phi ptr [ %40, %.thread.i12 ], [ %35, %37 ]
  tail call void @free(ptr noundef nonnull %43) #23
  store ptr null, ptr %34, align 8, !tbaa !87
  br label %Vec_WrdFreeP.exit

Vec_WrdFreeP.exit:                                ; preds = %Vec_PtrFreeP.exit, %42
  ret void
}